target datalayout = "e-m:e-p270:32:32-p271:32:32-p272:64:64-i64:64-i128:128-f80:128-n8:16:32:64-S128"
target triple = "x86_64-pc-linux-gnu"

%struct.expert_field = type { i32, i32 }

@hf_pn_io_number_of_apis = internal global i32 0, align 4
@hf_pn_io_api = internal global i32 0, align 4
@hf_pn_io_slot_nr = internal global i32 0, align 4
@hf_pn_io_subslot_nr = internal global i32 0, align 4
@hf_pn_io_module_ident_number = internal global i32 0, align 4
@hf_pn_io_submodule_ident_number = internal global i32 0, align 4
@hf_pn_io_number_of_modules = internal global i32 0, align 4
@hf_pn_io_number_of_submodules = internal global i32 0, align 4
@hf_pn_io_subslot = internal global i32 0, align 4
@ett_pn_io_module = internal global i32 0, align 4
@ett_pn_io_subslot = internal global i32 0, align 4
@ei_pn_io_block_version = internal global %struct.expert_field zeroinitializer, align 4
@.str.1317 = private unnamed_addr constant [41 x i8] c"Block version %u.%u not implemented yet!\00", align 1
@.str.1335 = private unnamed_addr constant [26 x i8] c": Number:0x%x, Ident:0x%x\00", align 1
@.str.1360 = private unnamed_addr constant [36 x i8] c": Slot:%u, Ident:0x%x Submodules:%u\00", align 1

; Function Attrs: nounwind uwtable
define internal i32 @dissect_IandM0FilterData_block(ptr noundef %0, i32 noundef %1, ptr noundef %2, ptr noundef %3, ptr noundef %4, ptr noundef %5, i8 noundef zeroext %6, i8 noundef zeroext %7) #0 {
  %9 = alloca i32, align 4
  %10 = alloca ptr, align 8
  %11 = alloca i32, align 4
  %12 = alloca ptr, align 8
  %13 = alloca ptr, align 8
  %14 = alloca ptr, align 8
  %15 = alloca ptr, align 8
  %16 = alloca i8, align 1
  %17 = alloca i8, align 1
  %18 = alloca i16, align 2
  %19 = alloca i32, align 4
  %20 = alloca i16, align 2
  %21 = alloca i16, align 2
  %22 = alloca i32, align 4
  %23 = alloca i16, align 2
  %24 = alloca i16, align 2
  %25 = alloca i32, align 4
  %26 = alloca ptr, align 8
  %27 = alloca ptr, align 8
  %28 = alloca ptr, align 8
  %29 = alloca ptr, align 8
  %30 = alloca i32, align 4
  store ptr %0, ptr %10, align 8
  store i32 %1, ptr %11, align 4
  store ptr %2, ptr %12, align 8
  store ptr %3, ptr %13, align 8
  store ptr %4, ptr %14, align 8
  store ptr %5, ptr %15, align 8
  store i8 %6, ptr %16, align 1
  store i8 %7, ptr %17, align 1
  %31 = load i8, ptr %16, align 1
  %32 = zext i8 %31 to i32
  %33 = icmp ne i32 %32, 1
  br i1 %33, label %38, label %34

34:                                               ; preds = %8
  %35 = load i8, ptr %17, align 1
  %36 = zext i8 %35 to i32
  %37 = icmp ne i32 %36, 0
  br i1 %37, label %38, label %47

38:                                               ; preds = %34, %8
  %39 = load ptr, ptr %12, align 8
  %40 = load ptr, ptr %14, align 8
  %41 = load i8, ptr %16, align 1
  %42 = zext i8 %41 to i32
  %43 = load i8, ptr %17, align 1
  %44 = zext i8 %43 to i32
  %45 = call ptr (ptr, ptr, ptr, ptr, ...) @expert_add_info_format(ptr noundef %39, ptr noundef %40, ptr noundef @ei_pn_io_block_version, ptr noundef @.str.1317, i32 noundef %42, i32 noundef %44)
  %46 = load i32, ptr %11, align 4
  store i32 %46, ptr %9, align 4
  br label %154

47:                                               ; preds = %34
  %48 = load ptr, ptr %10, align 8
  %49 = load i32, ptr %11, align 4
  %50 = load ptr, ptr %12, align 8
  %51 = load ptr, ptr %13, align 8
  %52 = load ptr, ptr %15, align 8
  %53 = load i32, ptr @hf_pn_io_number_of_apis, align 4
  %54 = call i32 @dissect_dcerpc_uint16(ptr noundef %48, i32 noundef %49, ptr noundef %50, ptr noundef %51, ptr noundef %52, i32 noundef %53, ptr noundef %18)
  store i32 %54, ptr %11, align 4
  br label %55

55:                                               ; preds = %151, %47
  %56 = load i16, ptr %18, align 2
  %57 = add i16 %56, -1
  store i16 %57, ptr %18, align 2
  %58 = icmp ne i16 %56, 0
  br i1 %58, label %59, label %152

59:                                               ; preds = %55
  %60 = load ptr, ptr %10, align 8
  %61 = load i32, ptr %11, align 4
  %62 = load ptr, ptr %12, align 8
  %63 = load ptr, ptr %13, align 8
  %64 = load ptr, ptr %15, align 8
  %65 = load i32, ptr @hf_pn_io_api, align 4
  %66 = call i32 @dissect_dcerpc_uint32(ptr noundef %60, i32 noundef %61, ptr noundef %62, ptr noundef %63, ptr noundef %64, i32 noundef %65, ptr noundef %19)
  store i32 %66, ptr %11, align 4
  %67 = load ptr, ptr %10, align 8
  %68 = load i32, ptr %11, align 4
  %69 = load ptr, ptr %12, align 8
  %70 = load ptr, ptr %13, align 8
  %71 = load ptr, ptr %15, align 8
  %72 = load i32, ptr @hf_pn_io_number_of_modules, align 4
  %73 = call i32 @dissect_dcerpc_uint16(ptr noundef %67, i32 noundef %68, ptr noundef %69, ptr noundef %70, ptr noundef %71, i32 noundef %72, ptr noundef %20)
  store i32 %73, ptr %11, align 4
  br label %74

74:                                               ; preds = %146, %59
  %75 = load i16, ptr %20, align 2
  %76 = add i16 %75, -1
  store i16 %76, ptr %20, align 2
  %77 = icmp ne i16 %75, 0
  br i1 %77, label %78, label %151

78:                                               ; preds = %74
  %79 = load ptr, ptr %13, align 8
  %80 = load i32, ptr @hf_pn_io_subslot, align 4
  %81 = load ptr, ptr %10, align 8
  %82 = load i32, ptr %11, align 4
  %83 = call ptr @proto_tree_add_item(ptr noundef %79, i32 noundef %80, ptr noundef %81, i32 noundef %82, i32 noundef 6, i32 noundef 0)
  store ptr %83, ptr %28, align 8
  %84 = load ptr, ptr %28, align 8
  %85 = load i32, ptr @ett_pn_io_module, align 4
  %86 = call ptr @proto_item_add_subtree(ptr noundef %84, i32 noundef %85)
  store ptr %86, ptr %29, align 8
  %87 = load i32, ptr %11, align 4
  store i32 %87, ptr %30, align 4
  %88 = load ptr, ptr %10, align 8
  %89 = load i32, ptr %11, align 4
  %90 = load ptr, ptr %12, align 8
  %91 = load ptr, ptr %29, align 8
  %92 = load ptr, ptr %15, align 8
  %93 = load i32, ptr @hf_pn_io_slot_nr, align 4
  %94 = call i32 @dissect_dcerpc_uint16(ptr noundef %88, i32 noundef %89, ptr noundef %90, ptr noundef %91, ptr noundef %92, i32 noundef %93, ptr noundef %21)
  store i32 %94, ptr %11, align 4
  %95 = load ptr, ptr %10, align 8
  %96 = load i32, ptr %11, align 4
  %97 = load ptr, ptr %12, align 8
  %98 = load ptr, ptr %29, align 8
  %99 = load ptr, ptr %15, align 8
  %100 = load i32, ptr @hf_pn_io_module_ident_number, align 4
  %101 = call i32 @dissect_dcerpc_uint32(ptr noundef %95, i32 noundef %96, ptr noundef %97, ptr noundef %98, ptr noundef %99, i32 noundef %100, ptr noundef %22)
  store i32 %101, ptr %11, align 4
  %102 = load ptr, ptr %10, align 8
  %103 = load i32, ptr %11, align 4
  %104 = load ptr, ptr %12, align 8
  %105 = load ptr, ptr %29, align 8
  %106 = load ptr, ptr %15, align 8
  %107 = load i32, ptr @hf_pn_io_number_of_submodules, align 4
  %108 = call i32 @dissect_dcerpc_uint16(ptr noundef %102, i32 noundef %103, ptr noundef %104, ptr noundef %105, ptr noundef %106, i32 noundef %107, ptr noundef %23)
  store i32 %108, ptr %11, align 4
  %109 = load ptr, ptr %28, align 8
  %110 = load i16, ptr %21, align 2
  %111 = zext i16 %110 to i32
  %112 = load i32, ptr %22, align 4
  %113 = load i16, ptr %23, align 2
  %114 = zext i16 %113 to i32
  call void (ptr, ptr, ...) @proto_item_append_text(ptr noundef %109, ptr noundef @.str.1360, i32 noundef %111, i32 noundef %112, i32 noundef %114)
  br label %115

115:                                              ; preds = %119, %78
  %116 = load i16, ptr %23, align 2
  %117 = add i16 %116, -1
  store i16 %117, ptr %23, align 2
  %118 = icmp ne i16 %116, 0
  br i1 %118, label %119, label %146

119:                                              ; preds = %115
  %120 = load ptr, ptr %29, align 8
  %121 = load i32, ptr @hf_pn_io_subslot, align 4
  %122 = load ptr, ptr %10, align 8
  %123 = load i32, ptr %11, align 4
  %124 = call ptr @proto_tree_add_item(ptr noundef %120, i32 noundef %121, ptr noundef %122, i32 noundef %123, i32 noundef 6, i32 noundef 0)
  store ptr %124, ptr %26, align 8
  %125 = load ptr, ptr %26, align 8
  %126 = load i32, ptr @ett_pn_io_subslot, align 4
  %127 = call ptr @proto_item_add_subtree(ptr noundef %125, i32 noundef %126)
  store ptr %127, ptr %27, align 8
  %128 = load ptr, ptr %10, align 8
  %129 = load i32, ptr %11, align 4
  %130 = load ptr, ptr %12, align 8
  %131 = load ptr, ptr %27, align 8
  %132 = load ptr, ptr %15, align 8
  %133 = load i32, ptr @hf_pn_io_subslot_nr, align 4
  %134 = call i32 @dissect_dcerpc_uint16(ptr noundef %128, i32 noundef %129, ptr noundef %130, ptr noundef %131, ptr noundef %132, i32 noundef %133, ptr noundef %24)
  store i32 %134, ptr %11, align 4
  %135 = load ptr, ptr %10, align 8
  %136 = load i32, ptr %11, align 4
  %137 = load ptr, ptr %12, align 8
  %138 = load ptr, ptr %27, align 8
  %139 = load ptr, ptr %15, align 8
  %140 = load i32, ptr @hf_pn_io_submodule_ident_number, align 4
  %141 = call i32 @dissect_dcerpc_uint32(ptr noundef %135, i32 noundef %136, ptr noundef %137, ptr noundef %138, ptr noundef %139, i32 noundef %140, ptr noundef %25)
  store i32 %141, ptr %11, align 4
  %142 = load ptr, ptr %26, align 8
  %143 = load i16, ptr %24, align 2
  %144 = zext i16 %143 to i32
  %145 = load i32, ptr %25, align 4
  call void (ptr, ptr, ...) @proto_item_append_text(ptr noundef %142, ptr noundef @.str.1335, i32 noundef %144, i32 noundef %145)
  br label %115, !llvm.loop !23

146:                                              ; preds = %115
  %147 = load ptr, ptr %28, align 8
  %148 = load i32, ptr %11, align 4
  %149 = load i32, ptr %30, align 4
  %150 = sub i32 %148, %149
  call void @proto_item_set_len(ptr noundef %147, i32 noundef %150)
  br label %74, !llvm.loop !24

151:                                              ; preds = %74
  br label %55, !llvm.loop !25

152:                                              ; preds = %55
  %153 = load i32, ptr %11, align 4
  store i32 %153, ptr %9, align 4
  br label %154

154:                                              ; preds = %152, %38
  %155 = load i32, ptr %9, align 4
  ret i32 %155
}