; Function Attrs: nounwind uwtable
define internal fastcc void @dissect_IandM0FilterData_block(ptr noundef %0, i32 noundef %1, ptr noundef %2, ptr noundef %3, ptr noundef %4, ptr noundef %5, i8 noundef zeroext %6, i8 noundef zeroext %7) unnamed_addr #0 {
  %9 = alloca i16, align 2
  %10 = alloca i32, align 4
  %11 = alloca i16, align 2
  %12 = alloca i16, align 2
  %13 = alloca i32, align 4
  %14 = alloca i16, align 2
  %15 = alloca i16, align 2
  %16 = alloca i32, align 4
  %17 = icmp ne i8 %6, 1
  %18 = icmp ne i8 %7, 0
  %or.cond = or i1 %17, %18
  br i1 %or.cond, label %19, label %23

19:                                               ; preds = %8
  %20 = zext i8 %7 to i32
  %21 = zext i8 %6 to i32
  %22 = tail call ptr (ptr, ptr, ptr, ptr, ...) @expert_add_info_format(ptr noundef %2, ptr noundef %4, ptr noundef nonnull @ei_pn_io_block_version, ptr noundef nonnull @.str.1317, i32 noundef %21, i32 noundef %20) #11
  br label %.loopexit67

23:                                               ; preds = %8
  %24 = load i32, ptr @hf_pn_io_number_of_apis, align 4
  %25 = call i32 @dissect_dcerpc_uint16(ptr noundef %0, i32 noundef %1, ptr noundef %2, ptr noundef %3, ptr noundef %5, i32 noundef %24, ptr noundef nonnull %9) #11
  %26 = load i16, ptr %9, align 2
  %27 = add i16 %26, -1
  store i16 %27, ptr %9, align 2
  %.not75 = icmp eq i16 %26, 0
  br i1 %.not75, label %.loopexit67, label %.lr.ph78

.loopexit:                                        ; preds = %._crit_edge, %.lr.ph78
  %.1.lcssa = phi i32 [ %33, %.lr.ph78 ], [ %.2.lcssa, %._crit_edge ]
  %28 = load i16, ptr %9, align 2
  %29 = add i16 %28, -1
  store i16 %29, ptr %9, align 2
  %.not = icmp eq i16 %28, 0
  br i1 %.not, label %.loopexit67, label %.lr.ph78, !llvm.loop !30

.lr.ph78:                                         ; preds = %23, %.loopexit
  %.06476 = phi i32 [ %.1.lcssa, %.loopexit ], [ %25, %23 ]
  %30 = load i32, ptr @hf_pn_io_api, align 4
  %31 = call i32 @dissect_dcerpc_uint32(ptr noundef %0, i32 noundef %.06476, ptr noundef %2, ptr noundef %3, ptr noundef %5, i32 noundef %30, ptr noundef nonnull %10) #11
  %32 = load i32, ptr @hf_pn_io_number_of_modules, align 4
  %33 = call i32 @dissect_dcerpc_uint16(ptr noundef %0, i32 noundef %31, ptr noundef %2, ptr noundef %3, ptr noundef %5, i32 noundef %32, ptr noundef nonnull %11) #11
  %34 = load i16, ptr %11, align 2
  %35 = add i16 %34, -1
  store i16 %35, ptr %11, align 2
  %.not6570 = icmp eq i16 %34, 0
  br i1 %.not6570, label %.loopexit, label %.lr.ph73

.lr.ph73:                                         ; preds = %.lr.ph78, %._crit_edge
  %.171 = phi i32 [ %.2.lcssa, %._crit_edge ], [ %33, %.lr.ph78 ]
  %36 = load i32, ptr @hf_pn_io_subslot, align 4
  %37 = call ptr @proto_tree_add_item(ptr noundef %3, i32 noundef %36, ptr noundef %0, i32 noundef %.171, i32 noundef 6, i32 noundef 0) #11
  %38 = load i32, ptr @ett_pn_io_module, align 4
  %39 = call ptr @proto_item_add_subtree(ptr noundef %37, i32 noundef %38) #11
  %40 = load i32, ptr @hf_pn_io_slot_nr, align 4
  %41 = call i32 @dissect_dcerpc_uint16(ptr noundef %0, i32 noundef %.171, ptr noundef %2, ptr noundef %39, ptr noundef %5, i32 noundef %40, ptr noundef nonnull %12) #11
  %42 = load i32, ptr @hf_pn_io_module_ident_number, align 4
  %43 = call i32 @dissect_dcerpc_uint32(ptr noundef %0, i32 noundef %41, ptr noundef %2, ptr noundef %39, ptr noundef %5, i32 noundef %42, ptr noundef nonnull %13) #11
  %44 = load i32, ptr @hf_pn_io_number_of_submodules, align 4
  %45 = call i32 @dissect_dcerpc_uint16(ptr noundef %0, i32 noundef %43, ptr noundef %2, ptr noundef %39, ptr noundef %5, i32 noundef %44, ptr noundef nonnull %14) #11
  %46 = load i16, ptr %12, align 2
  %47 = zext i16 %46 to i32
  %48 = load i32, ptr %13, align 4
  %49 = load i16, ptr %14, align 2
  %50 = zext i16 %49 to i32
  call void (ptr, ptr, ...) @proto_item_append_text(ptr noundef %37, ptr noundef nonnull @.str.1360, i32 noundef %47, i32 noundef %48, i32 noundef %50) #11
  %51 = load i16, ptr %14, align 2
  %52 = add i16 %51, -1
  store i16 %52, ptr %14, align 2
  %.not6668 = icmp eq i16 %51, 0
  br i1 %.not6668, label %._crit_edge, label %.lr.ph

.lr.ph:                                           ; preds = %.lr.ph73, %.lr.ph
  %.269 = phi i32 [ %60, %.lr.ph ], [ %45, %.lr.ph73 ]
  %53 = load i32, ptr @hf_pn_io_subslot, align 4
  %54 = call ptr @proto_tree_add_item(ptr noundef %39, i32 noundef %53, ptr noundef %0, i32 noundef %.269, i32 noundef 6, i32 noundef 0) #11
  %55 = load i32, ptr @ett_pn_io_subslot, align 4
  %56 = call ptr @proto_item_add_subtree(ptr noundef %54, i32 noundef %55) #11
  %57 = load i32, ptr @hf_pn_io_subslot_nr, align 4
  %58 = call i32 @dissect_dcerpc_uint16(ptr noundef %0, i32 noundef %.269, ptr noundef %2, ptr noundef %56, ptr noundef %5, i32 noundef %57, ptr noundef nonnull %15) #11
  %59 = load i32, ptr @hf_pn_io_submodule_ident_number, align 4
  %60 = call i32 @dissect_dcerpc_uint32(ptr noundef %0, i32 noundef %58, ptr noundef %2, ptr noundef %56, ptr noundef %5, i32 noundef %59, ptr noundef nonnull %16) #11
  %61 = load i16, ptr %15, align 2
  %62 = zext i16 %61 to i32
  %63 = load i32, ptr %16, align 4
  call void (ptr, ptr, ...) @proto_item_append_text(ptr noundef %54, ptr noundef nonnull @.str.1335, i32 noundef %62, i32 noundef %63) #11
  %64 = load i16, ptr %14, align 2
  %65 = add i16 %64, -1
  store i16 %65, ptr %14, align 2
  %.not66 = icmp eq i16 %64, 0
  br i1 %.not66, label %._crit_edge, label %.lr.ph, !llvm.loop !31

._crit_edge:                                      ; preds = %.lr.ph, %.lr.ph73
  %.2.lcssa = phi i32 [ %45, %.lr.ph73 ], [ %60, %.lr.ph ]
  %66 = sub i32 %.2.lcssa, %.171
  call void @proto_item_set_len(ptr noundef %37, i32 noundef %66) #11
  %67 = load i16, ptr %11, align 2
  %68 = add i16 %67, -1
  store i16 %68, ptr %11, align 2
  %.not65 = icmp eq i16 %67, 0
  br i1 %.not65, label %.loopexit, label %.lr.ph73, !llvm.loop !32

.loopexit67:                                      ; preds = %.loopexit, %23, %19
  ret void
}